; ModuleID = '31/1745.c'
source_filename = "31/1745.c"
target datalayout = "e-m:e-p270:32:32-p271:32:32-p272:64:64-i64:64-f80:128-n8:16:32:64-S128"
target triple = "x86_64-pc-linux-gnu"

%struct.student = type { [100 x i8], [30 x i8], i8, i32, float, [30 x i8], %struct.student*, %struct.student* }

@__const.creat.str = private unnamed_addr constant [5 x i8] c"end\00\00", align 1
@n = common dso_local global i32 0, align 4
@.str = private unnamed_addr constant [18 x i8] c"%s %s %c %d %g %s\00", align 1
@.str.1 = private unnamed_addr constant [3 x i8] c"%s\00", align 1
@.str.2 = private unnamed_addr constant [15 x i8] c"%s %c %d %g %s\00", align 1
@.str.3 = private unnamed_addr constant [19 x i8] c"%s %s %c %d %g %s\0A\00", align 1

; Function Attrs: noinline nounwind uwtable
define dso_local %struct.student* @creat() #0 {
  %1 = alloca %struct.student*, align 8
  %2 = alloca %struct.student*, align 8
  %3 = alloca %struct.student*, align 8
  %4 = alloca %struct.student*, align 8
  %5 = alloca [5 x i8], align 1
  %6 = bitcast [5 x i8]* %5 to i8*
  call void @llvm.memcpy.p0i8.p0i8.i64(i8* align 1 %6, i8* align 1 getelementptr inbounds ([5 x i8], [5 x i8]* @__const.creat.str, i32 0, i32 0), i64 5, i1 false)
  store i32 0, i32* @n, align 4
  %7 = call noalias i8* @malloc(i64 100) #5
  %8 = bitcast i8* %7 to %struct.student*
  store %struct.student* %8, %struct.student** %4, align 8
  store %struct.student* %8, %struct.student** %3, align 8
  %9 = load %struct.student*, %struct.student** %3, align 8
  %10 = getelementptr inbounds %struct.student, %struct.student* %9, i32 0, i32 0
  %11 = load %struct.student*, %struct.student** %3, align 8
  %12 = getelementptr inbounds %struct.student, %struct.student* %11, i32 0, i32 1
  %13 = getelementptr inbounds [30 x i8], [30 x i8]* %12, i64 0, i64 0
  %14 = load %struct.student*, %struct.student** %3, align 8
  %15 = getelementptr inbounds %struct.student, %struct.student* %14, i32 0, i32 2
  %16 = load %struct.student*, %struct.student** %3, align 8
  %17 = getelementptr inbounds %struct.student, %struct.student* %16, i32 0, i32 3
  %18 = load %struct.student*, %struct.student** %3, align 8
  %19 = getelementptr inbounds %struct.student, %struct.student* %18, i32 0, i32 4
  %20 = load %struct.student*, %struct.student** %3, align 8
  %21 = getelementptr inbounds %struct.student, %struct.student* %20, i32 0, i32 5
  %22 = getelementptr inbounds [30 x i8], [30 x i8]* %21, i64 0, i64 0
  %23 = call i32 (i8*, ...) @__isoc99_scanf(i8* getelementptr inbounds ([18 x i8], [18 x i8]* @.str, i64 0, i64 0), [100 x i8]* %10, i8* %13, i8* %15, i32* %17, float* %19, i8* %22)
  store %struct.student* null, %struct.student** %1, align 8
  br label %24

24:                                               ; preds = %68, %0
  %25 = load i32, i32* @n, align 4
  %26 = add nsw i32 %25, 1
  store i32 %26, i32* @n, align 4
  %27 = load i32, i32* @n, align 4
  %28 = icmp eq i32 %27, 1
  br i1 %28, label %29, label %33

29:                                               ; preds = %24
  %30 = load %struct.student*, %struct.student** %3, align 8
  store %struct.student* %30, %struct.student** %1, align 8
  %31 = load %struct.student*, %struct.student** %3, align 8
  %32 = getelementptr inbounds %struct.student, %struct.student* %31, i32 0, i32 7
  store %struct.student* null, %struct.student** %32, align 8
  br label %40

33:                                               ; preds = %24
  %34 = load %struct.student*, %struct.student** %3, align 8
  %35 = load %struct.student*, %struct.student** %4, align 8
  %36 = getelementptr inbounds %struct.student, %struct.student* %35, i32 0, i32 6
  store %struct.student* %34, %struct.student** %36, align 8
  %37 = load %struct.student*, %struct.student** %4, align 8
  %38 = load %struct.student*, %struct.student** %3, align 8
  %39 = getelementptr inbounds %struct.student, %struct.student* %38, i32 0, i32 7
  store %struct.student* %37, %struct.student** %39, align 8
  br label %40

40:                                               ; preds = %33, %29
  %41 = load %struct.student*, %struct.student** %3, align 8
  store %struct.student* %41, %struct.student** %4, align 8
  %42 = call noalias i8* @malloc(i64 100) #5
  %43 = bitcast i8* %42 to %struct.student*
  store %struct.student* %43, %struct.student** %3, align 8
  %44 = load %struct.student*, %struct.student** %3, align 8
  %45 = getelementptr inbounds %struct.student, %struct.student* %44, i32 0, i32 0
  %46 = call i32 (i8*, ...) @__isoc99_scanf(i8* getelementptr inbounds ([3 x i8], [3 x i8]* @.str.1, i64 0, i64 0), [100 x i8]* %45)
  %47 = load %struct.student*, %struct.student** %3, align 8
  %48 = getelementptr inbounds %struct.student, %struct.student* %47, i32 0, i32 0
  %49 = getelementptr inbounds [100 x i8], [100 x i8]* %48, i64 0, i64 0
  %50 = getelementptr inbounds [5 x i8], [5 x i8]* %5, i64 0, i64 0
  %51 = call i32 @strcmp(i8* %49, i8* %50) #6
  %52 = icmp eq i32 %51, 0
  br i1 %52, label %53, label %54

53:                                               ; preds = %40
  br label %71

54:                                               ; preds = %40
  %55 = load %struct.student*, %struct.student** %3, align 8
  %56 = getelementptr inbounds %struct.student, %struct.student* %55, i32 0, i32 1
  %57 = getelementptr inbounds [30 x i8], [30 x i8]* %56, i64 0, i64 0
  %58 = load %struct.student*, %struct.student** %3, align 8
  %59 = getelementptr inbounds %struct.student, %struct.student* %58, i32 0, i32 2
  %60 = load %struct.student*, %struct.student** %3, align 8
  %61 = getelementptr inbounds %struct.student, %struct.student* %60, i32 0, i32 3
  %62 = load %struct.student*, %struct.student** %3, align 8
  %63 = getelementptr inbounds %struct.student, %struct.student* %62, i32 0, i32 4
  %64 = load %struct.student*, %struct.student** %3, align 8
  %65 = getelementptr inbounds %struct.student, %struct.student* %64, i32 0, i32 5
  %66 = getelementptr inbounds [30 x i8], [30 x i8]* %65, i64 0, i64 0
  %67 = call i32 (i8*, ...) @__isoc99_scanf(i8* getelementptr inbounds ([15 x i8], [15 x i8]* @.str.2, i64 0, i64 0), i8* %57, i8* %59, i32* %61, float* %63, i8* %66)
  br label %68

68:                                               ; preds = %54
  %69 = load i32, i32* @n, align 4
  %70 = icmp slt i32 %69, 1000
  br i1 %70, label %24, label %71

71:                                               ; preds = %68, %53
  %72 = load %struct.student*, %struct.student** %4, align 8
  store %struct.student* %72, %struct.student** %2, align 8
  %73 = load %struct.student*, %struct.student** %4, align 8
  %74 = getelementptr inbounds %struct.student, %struct.student* %73, i32 0, i32 6
  store %struct.student* null, %struct.student** %74, align 8
  %75 = load %struct.student*, %struct.student** %2, align 8
  ret %struct.student* %75
}

; Function Attrs: argmemonly nounwind willreturn
declare void @llvm.memcpy.p0i8.p0i8.i64(i8* noalias nocapture writeonly, i8* noalias nocapture readonly, i64, i1 immarg) #1

; Function Attrs: nounwind
declare dso_local noalias i8* @malloc(i64) #2

declare dso_local i32 @__isoc99_scanf(i8*, ...) #3

; Function Attrs: nounwind readonly
declare dso_local i32 @strcmp(i8*, i8*) #4

; Function Attrs: noinline nounwind uwtable
define dso_local void @print(%struct.student* %0) #0 {
  %2 = alloca %struct.student*, align 8
  %3 = alloca %struct.student*, align 8
  store %struct.student* %0, %struct.student** %2, align 8
  %4 = load %struct.student*, %struct.student** %2, align 8
  store %struct.student* %4, %struct.student** %3, align 8
  br label %5

5:                                                ; preds = %30, %1
  %6 = load %struct.student*, %struct.student** %3, align 8
  %7 = getelementptr inbounds %struct.student, %struct.student* %6, i32 0, i32 0
  %8 = getelementptr inbounds [100 x i8], [100 x i8]* %7, i64 0, i64 0
  %9 = load %struct.student*, %struct.student** %3, align 8
  %10 = getelementptr inbounds %struct.student, %struct.student* %9, i32 0, i32 1
  %11 = getelementptr inbounds [30 x i8], [30 x i8]* %10, i64 0, i64 0
  %12 = load %struct.student*, %struct.student** %3, align 8
  %13 = getelementptr inbounds %struct.student, %struct.student* %12, i32 0, i32 2
  %14 = load i8, i8* %13, align 2
  %15 = sext i8 %14 to i32
  %16 = load %struct.student*, %struct.student** %3, align 8
  %17 = getelementptr inbounds %struct.student, %struct.student* %16, i32 0, i32 3
  %18 = load i32, i32* %17, align 4
  %19 = load %struct.student*, %struct.student** %3, align 8
  %20 = getelementptr inbounds %struct.student, %struct.student* %19, i32 0, i32 4
  %21 = load float, float* %20, align 8
  %22 = fpext float %21 to double
  %23 = load %struct.student*, %struct.student** %3, align 8
  %24 = getelementptr inbounds %struct.student, %struct.student* %23, i32 0, i32 5
  %25 = getelementptr inbounds [30 x i8], [30 x i8]* %24, i64 0, i64 0
  %26 = call i32 (i8*, ...) @printf(i8* getelementptr inbounds ([19 x i8], [19 x i8]* @.str.3, i64 0, i64 0), i8* %8, i8* %11, i32 %15, i32 %18, double %22, i8* %25)
  %27 = load %struct.student*, %struct.student** %3, align 8
  %28 = getelementptr inbounds %struct.student, %struct.student* %27, i32 0, i32 7
  %29 = load %struct.student*, %struct.student** %28, align 8
  store %struct.student* %29, %struct.student** %3, align 8
  br label %30

30:                                               ; preds = %5
  %31 = load %struct.student*, %struct.student** %3, align 8
  %32 = icmp ne %struct.student* %31, null
  br i1 %32, label %5, label %33

33:                                               ; preds = %30
  ret void
}

declare dso_local i32 @printf(i8*, ...) #3

; Function Attrs: noinline nounwind uwtable
define dso_local void @main() #0 {
  %1 = alloca %struct.student*, align 8
  %2 = call %struct.student* @creat()
  store %struct.student* %2, %struct.student** %1, align 8
  %3 = load %struct.student*, %struct.student** %1, align 8
  call void @print(%struct.student* %3)
  ret void
}


!llvm.module.flags = !{!0}
!llvm.ident = !{!1}

!0 = !{i32 1, !"wchar_size", i32 4}
!1 = !{!"clang version 10.0.0-4ubuntu1 "}
